target datalayout = "e-m:e-p270:32:32-p271:32:32-p272:64:64-i64:64-i128:128-f80:128-n8:16:32:64-S128"
target triple = "x86_64-pc-linux-gnu"

%struct.pmix_value = type { i16, %union.anon.9 }
%union.anon.9 = type { %struct.pmix_envar_t }
%struct.pmix_envar_t = type { ptr, ptr, i8 }
%struct.pmix_object_t = type { %union.pthread_mutex_t, ptr, i32, %struct.pmix_tma }
%union.pthread_mutex_t = type { %struct.__pthread_mutex_s }
%struct.__pthread_mutex_s = type { i32, i32, i32, i32, i32, i16, i16, %struct.__pthread_internal_list }
%struct.__pthread_internal_list = type { ptr, ptr }
%struct.pmix_tma = type { ptr, ptr, ptr, ptr, ptr, ptr, ptr, ptr }
%struct.timeval = type { i64, i64 }
%struct.pmix_list_t = type { %struct.pmix_object_t, %struct.pmix_list_item_t, i64 }
%struct.pmix_list_item_t = type { %struct.pmix_object_t, ptr, ptr, i32 }
%struct.pmix_lock_t = type { i32, %struct.pmix_mutex_t, %union.pthread_cond_t, i8 }
%struct.pmix_mutex_t = type { %struct.pmix_object_t, %union.pthread_mutex_t }
%union.pthread_cond_t = type { %struct.__pthread_cond_s }
%struct.__pthread_cond_s = type { %union.__atomic_wide_counter, %union.__atomic_wide_counter, [2 x i32], [2 x i32], i32, i32, [2 x i32] }
%union.__atomic_wide_counter = type { i64 }
%struct.pmix_query_caddy_t = type { %struct.pmix_object_t, %struct.event, %struct.pmix_lock_t, i8, i32, ptr, i64, ptr, i64, ptr, ptr, i64, i64, %struct.pmix_list_t, i64, i64, %struct.pmix_byte_object, ptr, ptr, ptr, ptr, ptr, ptr }
%struct.event = type { %struct.event_callback, %union.anon.0, i32, ptr, %union.anon.2, i16, i16, %struct.timeval }
%struct.event_callback = type { %struct.anon, i16, i8, i8, %union.anon, ptr }
%struct.anon = type { ptr, ptr }
%union.anon = type { ptr }
%union.anon.0 = type { %struct.anon.1 }
%struct.anon.1 = type { ptr, ptr }
%union.anon.2 = type { %struct.anon.3 }
%struct.anon.3 = type { %struct.anon.4, %struct.timeval }
%struct.anon.4 = type { ptr, ptr }
%struct.pmix_byte_object = type { ptr, i64 }
%struct.pmix_info = type { [512 x i8], i32, %struct.pmix_value }

; Function Attrs: inlinehint nounwind uwtable
define internal void @pmix_mutex_unlock(ptr noundef %0) #3 {
  %2 = alloca ptr, align 8
  store ptr %0, ptr %2, align 8, !tbaa !164
  %3 = load ptr, ptr %2, align 8, !tbaa !164
  %4 = getelementptr inbounds nuw %struct.pmix_mutex_t, ptr %3, i32 0, i32 1
  %5 = call i32 @pthread_mutex_unlock(ptr noundef %4) #12
  ret void
}

; Function Attrs: inlinehint nounwind uwtable
define internal void @pmix_atomic_wmb() #3 {
  fence release
  ret void
}

; Function Attrs: inlinehint nounwind uwtable
define internal void @pmix_mutex_lock(ptr noundef %0) #3 {
  %2 = alloca ptr, align 8
  store ptr %0, ptr %2, align 8, !tbaa !164
  %3 = load ptr, ptr %2, align 8, !tbaa !164
  %4 = getelementptr inbounds nuw %struct.pmix_mutex_t, ptr %3, i32 0, i32 1
  %5 = call i32 @pthread_mutex_lock(ptr noundef %4) #12
  ret void
}

; Function Attrs: nounwind uwtable
define internal void @qinfocb(i32 noundef %0, ptr noundef %1, i64 noundef %2, ptr noundef %3, ptr noundef %4, ptr noundef %5) #0 {
  %7 = alloca i32, align 4
  %8 = alloca ptr, align 8
  %9 = alloca i64, align 8
  %10 = alloca ptr, align 8
  %11 = alloca ptr, align 8
  %12 = alloca ptr, align 8
  %13 = alloca ptr, align 8
  %14 = alloca i64, align 8
  store i32 %0, ptr %7, align 4, !tbaa !41
  store ptr %1, ptr %8, align 8, !tbaa !163
  store i64 %2, ptr %9, align 8, !tbaa !46
  store ptr %3, ptr %10, align 8, !tbaa !3
  store ptr %4, ptr %11, align 8, !tbaa !3
  store ptr %5, ptr %12, align 8, !tbaa !3
  call void @llvm.lifetime.start.p0(i64 8, ptr %13) #12
  %15 = load ptr, ptr %10, align 8, !tbaa !3
  store ptr %15, ptr %13, align 8, !tbaa !3
  call void @llvm.lifetime.start.p0(i64 8, ptr %14) #12
  %16 = load i32, ptr %7, align 4, !tbaa !41
  %17 = load ptr, ptr %13, align 8, !tbaa !3
  %18 = getelementptr inbounds nuw %struct.pmix_query_caddy_t, ptr %17, i32 0, i32 4
  store i32 %16, ptr %18, align 4, !tbaa !112
  %19 = load ptr, ptr %8, align 8, !tbaa !163
  %20 = icmp ne ptr null, %19
  br i1 %20, label %21, label %49

21:                                               ; preds = %6
  %22 = load i64, ptr %9, align 8, !tbaa !46
  %23 = load ptr, ptr %13, align 8, !tbaa !3
  %24 = getelementptr inbounds nuw %struct.pmix_query_caddy_t, ptr %23, i32 0, i32 11
  store i64 %22, ptr %24, align 8, !tbaa !113
  %25 = load ptr, ptr %13, align 8, !tbaa !3
  %26 = getelementptr inbounds nuw %struct.pmix_query_caddy_t, ptr %25, i32 0, i32 11
  %27 = load i64, ptr %26, align 8, !tbaa !113
  %28 = call ptr @PMIx_Info_create(i64 noundef %27)
  %29 = load ptr, ptr %13, align 8, !tbaa !3
  %30 = getelementptr inbounds nuw %struct.pmix_query_caddy_t, ptr %29, i32 0, i32 9
  store ptr %28, ptr %30, align 8, !tbaa !114
  store i64 0, ptr %14, align 8, !tbaa !46
  br label %31

31:                                               ; preds = %45, %21
  %32 = load i64, ptr %14, align 8, !tbaa !46
  %33 = load i64, ptr %9, align 8, !tbaa !46
  %34 = icmp ult i64 %32, %33
  br i1 %34, label %35, label %48

35:                                               ; preds = %31
  %36 = load ptr, ptr %13, align 8, !tbaa !3
  %37 = getelementptr inbounds nuw %struct.pmix_query_caddy_t, ptr %36, i32 0, i32 9
  %38 = load ptr, ptr %37, align 8, !tbaa !114
  %39 = load i64, ptr %14, align 8, !tbaa !46
  %40 = getelementptr inbounds nuw %struct.pmix_info, ptr %38, i64 %39
  %41 = load ptr, ptr %8, align 8, !tbaa !163
  %42 = load i64, ptr %14, align 8, !tbaa !46
  %43 = getelementptr inbounds nuw %struct.pmix_info, ptr %41, i64 %42
  %44 = call i32 @PMIx_Info_xfer(ptr noundef %40, ptr noundef %43)
  br label %45

45:                                               ; preds = %35
  %46 = load i64, ptr %14, align 8, !tbaa !46
  %47 = add i64 %46, 1
  store i64 %47, ptr %14, align 8, !tbaa !46
  br label %31, !llvm.loop !170

48:                                               ; preds = %31
  br label %49

49:                                               ; preds = %48, %6
  %50 = load ptr, ptr %11, align 8, !tbaa !3
  %51 = icmp ne ptr null, %50
  br i1 %51, label %52, label %55

52:                                               ; preds = %49
  %53 = load ptr, ptr %11, align 8, !tbaa !3
  %54 = load ptr, ptr %12, align 8, !tbaa !3
  call void %53(ptr noundef %54)
  br label %55

55:                                               ; preds = %52, %49
  br label %56

56:                                               ; preds = %55
  %57 = load ptr, ptr %13, align 8, !tbaa !3
  %58 = getelementptr inbounds nuw %struct.pmix_query_caddy_t, ptr %57, i32 0, i32 2
  %59 = getelementptr inbounds nuw %struct.pmix_lock_t, ptr %58, i32 0, i32 1
  call void @pmix_mutex_lock(ptr noundef %59)
  %60 = load ptr, ptr %13, align 8, !tbaa !3
  %61 = getelementptr inbounds nuw %struct.pmix_query_caddy_t, ptr %60, i32 0, i32 2
  %62 = getelementptr inbounds nuw %struct.pmix_lock_t, ptr %61, i32 0, i32 3
  store volatile i8 0, ptr %62, align 8, !tbaa !161
  call void @pmix_atomic_wmb()
  %63 = load ptr, ptr %13, align 8, !tbaa !3
  %64 = getelementptr inbounds nuw %struct.pmix_query_caddy_t, ptr %63, i32 0, i32 2
  %65 = getelementptr inbounds nuw %struct.pmix_lock_t, ptr %64, i32 0, i32 2
  %66 = call i32 @pthread_cond_broadcast(ptr noundef %65) #12
  %67 = load ptr, ptr %13, align 8, !tbaa !3
  %68 = getelementptr inbounds nuw %struct.pmix_query_caddy_t, ptr %67, i32 0, i32 2
  %69 = getelementptr inbounds nuw %struct.pmix_lock_t, ptr %68, i32 0, i32 1
  call void @pmix_mutex_unlock(ptr noundef %69)
  br label %70

70:                                               ; preds = %56
  br label %71

71:                                               ; preds = %70
  call void @llvm.lifetime.end.p0(i64 8, ptr %14) #12
  call void @llvm.lifetime.end.p0(i64 8, ptr %13) #12
  ret void
}