; Function Attrs: nounwind uwtable
define internal void @qinfocb(i32 noundef %0, ptr noundef %1, i64 noundef %2, ptr noundef initializes((476, 480)) %3, ptr noundef readonly captures(address_is_null) %4, ptr noundef %5) #1 {
  %7 = getelementptr inbounds nuw i8, ptr %3, i64 476
  store i32 %0, ptr %7, align 4, !tbaa !108
  %.not = icmp eq ptr %1, null
  br i1 %.not, label %.loopexit, label %8

8:                                                ; preds = %6
  %9 = getelementptr inbounds nuw i8, ptr %3, i64 528
  store i64 %2, ptr %9, align 8, !tbaa !109
  %10 = tail call ptr @PMIx_Info_create(i64 noundef %2) #14
  %11 = getelementptr inbounds nuw i8, ptr %3, i64 512
  store ptr %10, ptr %11, align 8, !tbaa !110
  %.not25 = icmp eq i64 %2, 0
  br i1 %.not25, label %.loopexit, label %.lr.ph

.lr.ph:                                           ; preds = %8, %.lr.ph
  %.024 = phi i64 [ %16, %.lr.ph ], [ 0, %8 ]
  %12 = load ptr, ptr %11, align 8, !tbaa !110
  %13 = getelementptr inbounds nuw %struct.pmix_info, ptr %12, i64 %.024
  %14 = getelementptr inbounds nuw %struct.pmix_info, ptr %1, i64 %.024
  %15 = tail call i32 @PMIx_Info_xfer(ptr noundef %13, ptr noundef nonnull %14) #14
  %16 = add nuw i64 %.024, 1
  %exitcond.not = icmp eq i64 %16, %2
  br i1 %exitcond.not, label %.loopexit, label %.lr.ph, !llvm.loop !149

.loopexit:                                        ; preds = %.lr.ph, %8, %6
  %.not23 = icmp eq ptr %4, null
  br i1 %.not23, label %18, label %17

17:                                               ; preds = %.loopexit
  tail call void %4(ptr noundef %5) #14
  br label %18

18:                                               ; preds = %.loopexit, %17
  %19 = getelementptr inbounds nuw i8, ptr %3, i64 376
  %20 = tail call i32 @pthread_mutex_lock(ptr noundef nonnull %19) #14
  %21 = getelementptr inbounds nuw i8, ptr %3, i64 464
  store volatile i8 0, ptr %21, align 8, !tbaa !147
  fence release
  %22 = getelementptr inbounds nuw i8, ptr %3, i64 416
  %23 = tail call i32 @pthread_cond_broadcast(ptr noundef nonnull %22) #14
  %24 = tail call i32 @pthread_mutex_unlock(ptr noundef nonnull %19) #14
  ret void
}